(dp0
VORIGIN
p1
ccopy_reg
_reconstructor
p2
(csklearn.preprocessing.label
LabelEncoder
p3
c__builtin__
object
p4
Ntp5
Rp6
(dp7
S'classes_'
p8
cnumpy.core.multiarray
_reconstruct
p9
(cnumpy
ndarray
p10
(I0
tp11
S'b'
p12
tp13
Rp14
(I1
(I20
tp15
cnumpy
dtype
p16
(S'O8'
p17
I0
I1
tp18
Rp19
(I3
S'|'
p20
NNNI-1
I-1
I63
tp21
bI00
(lp22
VATL
p23
aVBOS
p24
aVBWI
p25
aVCLT
p26
aVDEN
p27
aVDFW
p28
aVDTW
p29
aVEWR
p30
aVIAH
p31
aVJFK
p32
aVLAS
p33
aVLAX
p34
aVLGA
p35
aVMCO
p36
aVMSP
p37
aVORD
p38
aVPHX
p39
aVSEA
p40
aVSFO
p41
aVSLC
p42
atp43
bsbsVDEST
p44
g2
(g3
g4
Ntp45
Rp46
(dp47
g8
g9
(g10
(I0
tp48
g12
tp49
Rp50
(I1
(I20
tp51
g19
I00
(lp52
VATL
p53
aVBOS
p54
aVBWI
p55
aVCLT
p56
aVDEN
p57
aVDFW
p58
aVDTW
p59
aVEWR
p60
aVIAH
p61
aVJFK
p62
aVLAS
p63
aVLAX
p64
aVLGA
p65
aVMCO
p66
aVMSP
p67
aVORD
p68
aVPHX
p69
aVSEA
p70
aVSFO
p71
aVSLC
p72
atp73
bsbsVCARRIER
p74
g2
(g3
g4
Ntp75
Rp76
(dp77
g8
g9
(g10
(I0
tp78
g12
tp79
Rp80
(I1
(I9
tp81
g19
I00
(lp82
VAA
p83
aVAS
p84
aVB6
p85
aVDL
p86
aVEV
p87
aVF9
p88
aVOO
p89
aVUA
p90
aVWN
p91
atp92
bsbs.